target datalayout = "e-m:e-p270:32:32-p271:32:32-p272:64:64-i64:64-i128:128-f80:128-n8:16:32:64-S128"
target triple = "x86_64-pc-linux-gnu"

%"class.Minisat::vec.1" = type { ptr, i32, i32 }
%"class.Minisat::vec" = type { ptr, i32, i32 }
%"class.Minisat::LSet" = type { %"class.Minisat::IntSet" }
%"class.Minisat::IntSet" = type { %"class.Minisat::IntMap", %"class.Minisat::vec.1" }
%"class.Minisat::IntMap" = type <{ %"class.Minisat::vec.0", %"struct.Minisat::MkIndexLit", [7 x i8] }>
%"class.Minisat::vec.0" = type { ptr, i32, i32 }
%"struct.Minisat::MkIndexLit" = type { i8 }
%"class.Minisat::VMap" = type { %"class.Minisat::IntMap.base.6", [7 x i8] }
%"class.Minisat::IntMap.base.6" = type <{ %"class.Minisat::vec.5", %"struct.Minisat::MkIndexDefault" }>
%"class.Minisat::vec.5" = type { ptr, i32, i32 }
%"struct.Minisat::MkIndexDefault" = type { i8 }
%"class.Minisat::VMap.7" = type { %"class.Minisat::IntMap.base.9", [7 x i8] }
%"class.Minisat::IntMap.base.9" = type <{ %"class.Minisat::vec", %"struct.Minisat::MkIndexDefault" }>
%"class.Minisat::VMap.15" = type { %"class.Minisat::IntMap.base.18", [7 x i8] }
%"class.Minisat::IntMap.base.18" = type <{ %"class.Minisat::vec.17", %"struct.Minisat::MkIndexDefault" }>
%"class.Minisat::vec.17" = type { ptr, i32, i32 }
%"class.Minisat::OccLists" = type { %"class.Minisat::IntMap.20", %"class.Minisat::IntMap", %"class.Minisat::vec.1", %"struct.Minisat::Solver::WatcherDeleted" }
%"class.Minisat::IntMap.20" = type <{ %"class.Minisat::vec.21", %"struct.Minisat::MkIndexLit", [7 x i8] }>
%"class.Minisat::vec.21" = type { ptr, i32, i32 }
%"struct.Minisat::Solver::WatcherDeleted" = type { ptr }
%"class.Minisat::Heap" = type { %"class.Minisat::vec.3", %"class.Minisat::IntMap.23", %"struct.Minisat::Solver::VarOrderLt" }
%"class.Minisat::IntMap.23" = type <{ %"class.Minisat::vec.3", %"struct.Minisat::MkIndexDefault", [7 x i8] }>
%"struct.Minisat::Solver::VarOrderLt" = type { ptr }
%"class.Minisat::ClauseAllocator" = type { %"class.Minisat::RegionAllocator", i8, [7 x i8] }
%"class.Minisat::RegionAllocator" = type <{ ptr, i32, i32, i32, [4 x i8] }>
%"class.Minisat::vec.25" = type { ptr, i32, i32 }
%"class.Minisat::vec.2" = type { ptr, i32, i32 }
%"class.Minisat::vec.3" = type { ptr, i32, i32 }
%"class.Minisat::VMap.11" = type { %"class.Minisat::IntMap.base.13", [7 x i8] }
%"class.Minisat::IntMap.base.13" = type <{ %"class.Minisat::vec.0", %"struct.Minisat::MkIndexDefault" }>
%"class.Minisat::Solver" = type <{ ptr, %"class.Minisat::vec", %"class.Minisat::LSet", i32, [4 x i8], double, double, double, double, i8, [3 x i8], i32, i32, i8, i8, [2 x i8], double, i32, i32, double, double, double, i32, [4 x i8], double, i64, i64, i64, i64, i64, i64, i64, i64, i64, i64, i64, i64, i64, %"class.Minisat::vec.2", %"class.Minisat::vec.2", %"class.Minisat::vec.1", %"class.Minisat::vec.3", %"class.Minisat::vec.1", %"class.Minisat::VMap", %"class.Minisat::VMap.7", %"class.Minisat::VMap.11", %"class.Minisat::VMap.7", %"class.Minisat::VMap.11", %"class.Minisat::VMap.15", %"class.Minisat::OccLists", %"class.Minisat::Heap", i8, [7 x i8], double, double, i32, i32, i64, double, i8, [3 x i8], i32, %"class.Minisat::ClauseAllocator", %"class.Minisat::vec.3", %"class.Minisat::vec.3", %"class.Minisat::VMap.11", %"class.Minisat::vec.25", %"class.Minisat::vec.1", %"class.Minisat::vec.1", double, double, i32, [4 x i8], i64, i64, i8, [7 x i8] }>

@.str.27 = private unnamed_addr constant [65 x i8] c"|  Garbage collection:   %12d bytes => %12d bytes             |\0A\00", align 1

; Function Attrs: mustprogress nounwind uwtable
define linkonce_odr void @_ZN7Minisat15RegionAllocatorIjE6moveToERS1_(ptr noundef nonnull align 8 dereferenceable(20) %0, ptr noundef nonnull align 8 dereferenceable(20) %1) #1 comdat align 2 {
  %3 = alloca ptr, align 8
  %4 = alloca ptr, align 8
  store ptr %0, ptr %3, align 8
  store ptr %1, ptr %4, align 8
  %5 = load ptr, ptr %3, align 8
  %6 = load ptr, ptr %4, align 8
  %7 = getelementptr inbounds %"class.Minisat::RegionAllocator", ptr %6, i32 0, i32 0
  %8 = load ptr, ptr %7, align 8
  %9 = icmp ne ptr %8, null
  br i1 %9, label %10, label %14

10:                                               ; preds = %2
  %11 = load ptr, ptr %4, align 8
  %12 = getelementptr inbounds %"class.Minisat::RegionAllocator", ptr %11, i32 0, i32 0
  %13 = load ptr, ptr %12, align 8
  call void @free(ptr noundef %13) #3
  br label %14

14:                                               ; preds = %10, %2
  %15 = getelementptr inbounds %"class.Minisat::RegionAllocator", ptr %5, i32 0, i32 0
  %16 = load ptr, ptr %15, align 8
  %17 = load ptr, ptr %4, align 8
  %18 = getelementptr inbounds %"class.Minisat::RegionAllocator", ptr %17, i32 0, i32 0
  store ptr %16, ptr %18, align 8
  %19 = getelementptr inbounds %"class.Minisat::RegionAllocator", ptr %5, i32 0, i32 1
  %20 = load i32, ptr %19, align 8
  %21 = load ptr, ptr %4, align 8
  %22 = getelementptr inbounds %"class.Minisat::RegionAllocator", ptr %21, i32 0, i32 1
  store i32 %20, ptr %22, align 8
  %23 = getelementptr inbounds %"class.Minisat::RegionAllocator", ptr %5, i32 0, i32 2
  %24 = load i32, ptr %23, align 4
  %25 = load ptr, ptr %4, align 8
  %26 = getelementptr inbounds %"class.Minisat::RegionAllocator", ptr %25, i32 0, i32 2
  store i32 %24, ptr %26, align 4
  %27 = getelementptr inbounds %"class.Minisat::RegionAllocator", ptr %5, i32 0, i32 3
  %28 = load i32, ptr %27, align 8
  %29 = load ptr, ptr %4, align 8
  %30 = getelementptr inbounds %"class.Minisat::RegionAllocator", ptr %29, i32 0, i32 3
  store i32 %28, ptr %30, align 8
  %31 = getelementptr inbounds %"class.Minisat::RegionAllocator", ptr %5, i32 0, i32 0
  store ptr null, ptr %31, align 8
  %32 = getelementptr inbounds %"class.Minisat::RegionAllocator", ptr %5, i32 0, i32 3
  store i32 0, ptr %32, align 8
  %33 = getelementptr inbounds %"class.Minisat::RegionAllocator", ptr %5, i32 0, i32 2
  store i32 0, ptr %33, align 4
  %34 = getelementptr inbounds %"class.Minisat::RegionAllocator", ptr %5, i32 0, i32 1
  store i32 0, ptr %34, align 8
  ret void
}

; Function Attrs: mustprogress nounwind uwtable
define linkonce_odr void @_ZN7Minisat15RegionAllocatorIjED2Ev(ptr noundef nonnull align 8 dereferenceable(20) %0) unnamed_addr #1 comdat align 2 {
  %2 = alloca ptr, align 8
  store ptr %0, ptr %2, align 8
  %3 = load ptr, ptr %2, align 8
  %4 = getelementptr inbounds %"class.Minisat::RegionAllocator", ptr %3, i32 0, i32 0
  %5 = load ptr, ptr %4, align 8
  %6 = icmp ne ptr %5, null
  br i1 %6, label %7, label %10

7:                                                ; preds = %1
  %8 = getelementptr inbounds %"class.Minisat::RegionAllocator", ptr %3, i32 0, i32 0
  %9 = load ptr, ptr %8, align 8
  call void @free(ptr noundef %9) #3
  br label %10

10:                                               ; preds = %7, %1
  ret void
}

; Function Attrs: mustprogress uwtable
define linkonce_odr void @_ZN7Minisat15RegionAllocatorIjEC2Ej(ptr noundef nonnull align 8 dereferenceable(20) %0, i32 noundef %1) unnamed_addr #2 comdat align 2 {
  %3 = alloca ptr, align 8
  %4 = alloca i32, align 4
  store ptr %0, ptr %3, align 8
  store i32 %1, ptr %4, align 4
  %5 = load ptr, ptr %3, align 8
  %6 = getelementptr inbounds %"class.Minisat::RegionAllocator", ptr %5, i32 0, i32 0
  store ptr null, ptr %6, align 8
  %7 = getelementptr inbounds %"class.Minisat::RegionAllocator", ptr %5, i32 0, i32 1
  store i32 0, ptr %7, align 8
  %8 = getelementptr inbounds %"class.Minisat::RegionAllocator", ptr %5, i32 0, i32 2
  store i32 0, ptr %8, align 4
  %9 = getelementptr inbounds %"class.Minisat::RegionAllocator", ptr %5, i32 0, i32 3
  store i32 0, ptr %9, align 8
  %10 = load i32, ptr %4, align 4
  call void @_ZN7Minisat15RegionAllocatorIjE8capacityEj(ptr noundef nonnull align 8 dereferenceable(20) %5, i32 noundef %10)
  ret void
}

; Function Attrs: mustprogress nounwind uwtable
define linkonce_odr noundef i32 @_ZNK7Minisat15RegionAllocatorIjE6wastedEv(ptr noundef nonnull align 8 dereferenceable(20) %0) #1 comdat align 2 {
  %2 = alloca ptr, align 8
  store ptr %0, ptr %2, align 8
  %3 = load ptr, ptr %2, align 8
  %4 = getelementptr inbounds %"class.Minisat::RegionAllocator", ptr %3, i32 0, i32 3
  %5 = load i32, ptr %4, align 8
  ret i32 %5
}

; Function Attrs: mustprogress nounwind uwtable
define linkonce_odr noundef i32 @_ZNK7Minisat15RegionAllocatorIjE4sizeEv(ptr noundef nonnull align 8 dereferenceable(20) %0) #1 comdat align 2 {
  %2 = alloca ptr, align 8
  store ptr %0, ptr %2, align 8
  %3 = load ptr, ptr %2, align 8
  %4 = getelementptr inbounds %"class.Minisat::RegionAllocator", ptr %3, i32 0, i32 1
  %5 = load i32, ptr %4, align 8
  ret i32 %5
}

; Function Attrs: mustprogress uwtable
define linkonce_odr void @_ZN7Minisat15ClauseAllocator6moveToERS0_(ptr noundef nonnull align 8 dereferenceable(25) %0, ptr noundef nonnull align 8 dereferenceable(25) %1) #2 comdat align 2 {
  %3 = alloca ptr, align 8
  %4 = alloca ptr, align 8
  store ptr %0, ptr %3, align 8
  store ptr %1, ptr %4, align 8
  %5 = load ptr, ptr %3, align 8
  %6 = getelementptr inbounds %"class.Minisat::ClauseAllocator", ptr %5, i32 0, i32 1
  %7 = load i8, ptr %6, align 8
  %8 = trunc i8 %7 to i1
  %9 = load ptr, ptr %4, align 8
  %10 = getelementptr inbounds %"class.Minisat::ClauseAllocator", ptr %9, i32 0, i32 1
  %11 = zext i1 %8 to i8
  store i8 %11, ptr %10, align 8
  %12 = getelementptr inbounds %"class.Minisat::ClauseAllocator", ptr %5, i32 0, i32 0
  %13 = load ptr, ptr %4, align 8
  %14 = getelementptr inbounds %"class.Minisat::ClauseAllocator", ptr %13, i32 0, i32 0
  call void @_ZN7Minisat15RegionAllocatorIjE6moveToERS1_(ptr noundef nonnull align 8 dereferenceable(20) %12, ptr noundef nonnull align 8 dereferenceable(20) %14)
  ret void
}

; Function Attrs: mustprogress nounwind uwtable
define linkonce_odr void @_ZN7Minisat15ClauseAllocatorD2Ev(ptr noundef nonnull align 8 dereferenceable(25) %0) unnamed_addr #1 comdat align 2 {
  %2 = alloca ptr, align 8
  store ptr %0, ptr %2, align 8
  %3 = load ptr, ptr %2, align 8
  %4 = getelementptr inbounds %"class.Minisat::ClauseAllocator", ptr %3, i32 0, i32 0
  call void @_ZN7Minisat15RegionAllocatorIjED2Ev(ptr noundef nonnull align 8 dereferenceable(20) %4) #3
  ret void
}

; Function Attrs: mustprogress uwtable
define linkonce_odr void @_ZN7Minisat15ClauseAllocatorC2Ej(ptr noundef nonnull align 8 dereferenceable(25) %0, i32 noundef %1) unnamed_addr #2 comdat align 2 {
  %3 = alloca ptr, align 8
  %4 = alloca i32, align 4
  store ptr %0, ptr %3, align 8
  store i32 %1, ptr %4, align 4
  %5 = load ptr, ptr %3, align 8
  %6 = getelementptr inbounds %"class.Minisat::ClauseAllocator", ptr %5, i32 0, i32 0
  %7 = load i32, ptr %4, align 4
  call void @_ZN7Minisat15RegionAllocatorIjEC2Ej(ptr noundef nonnull align 8 dereferenceable(20) %6, i32 noundef %7)
  %8 = getelementptr inbounds %"class.Minisat::ClauseAllocator", ptr %5, i32 0, i32 1
  store i8 0, ptr %8, align 8
  ret void
}

; Function Attrs: mustprogress uwtable
define linkonce_odr noundef i32 @_ZNK7Minisat15ClauseAllocator6wastedEv(ptr noundef nonnull align 8 dereferenceable(25) %0) #2 comdat align 2 {
  %2 = alloca ptr, align 8
  store ptr %0, ptr %2, align 8
  %3 = load ptr, ptr %2, align 8
  %4 = getelementptr inbounds %"class.Minisat::ClauseAllocator", ptr %3, i32 0, i32 0
  %5 = call noundef i32 @_ZNK7Minisat15RegionAllocatorIjE6wastedEv(ptr noundef nonnull align 8 dereferenceable(20) %4)
  ret i32 %5
}

; Function Attrs: mustprogress uwtable
define linkonce_odr noundef i32 @_ZNK7Minisat15ClauseAllocator4sizeEv(ptr noundef nonnull align 8 dereferenceable(25) %0) #2 comdat align 2 {
  %2 = alloca ptr, align 8
  store ptr %0, ptr %2, align 8
  %3 = load ptr, ptr %2, align 8
  %4 = getelementptr inbounds %"class.Minisat::ClauseAllocator", ptr %3, i32 0, i32 0
  %5 = call noundef i32 @_ZNK7Minisat15RegionAllocatorIjE4sizeEv(ptr noundef nonnull align 8 dereferenceable(20) %4)
  ret i32 %5
}

; Function Attrs: mustprogress uwtable
define void @_ZN7Minisat10SimpSolver14garbageCollectEv(ptr noundef nonnull align 8 dereferenceable(1196) %0) unnamed_addr #2 align 2 personality ptr @__gxx_personality_v0 {
  %2 = alloca ptr, align 8
  %3 = alloca %"class.Minisat::ClauseAllocator", align 8
  %4 = alloca ptr, align 8
  %5 = alloca i32, align 4
  store ptr %0, ptr %2, align 8
  %6 = load ptr, ptr %2, align 8
  %7 = getelementptr inbounds %"class.Minisat::Solver", ptr %6, i32 0, i32 62
  %8 = call noundef i32 @_ZNK7Minisat15ClauseAllocator4sizeEv(ptr noundef nonnull align 8 dereferenceable(25) %7)
  %9 = getelementptr inbounds %"class.Minisat::Solver", ptr %6, i32 0, i32 62
  %10 = call noundef i32 @_ZNK7Minisat15ClauseAllocator6wastedEv(ptr noundef nonnull align 8 dereferenceable(25) %9)
  %11 = sub i32 %8, %10
  call void @_ZN7Minisat15ClauseAllocatorC2Ej(ptr noundef nonnull align 8 dereferenceable(25) %3, i32 noundef %11)
  %12 = getelementptr inbounds %"class.Minisat::Solver", ptr %6, i32 0, i32 62
  %13 = getelementptr inbounds %"class.Minisat::ClauseAllocator", ptr %12, i32 0, i32 1
  %14 = load i8, ptr %13, align 8
  %15 = trunc i8 %14 to i1
  %16 = getelementptr inbounds %"class.Minisat::ClauseAllocator", ptr %3, i32 0, i32 1
  %17 = zext i1 %15 to i8
  store i8 %17, ptr %16, align 8
  invoke void @_ZN7Minisat10SimpSolver8relocAllERNS_15ClauseAllocatorE(ptr noundef nonnull align 8 dereferenceable(1196) %6, ptr noundef nonnull align 8 dereferenceable(25) %3)
          to label %18 unwind label %33

18:                                               ; preds = %1
  invoke void @_ZN7Minisat6Solver8relocAllERNS_15ClauseAllocatorE(ptr noundef nonnull align 8 dereferenceable(857) %6, ptr noundef nonnull align 8 dereferenceable(25) %3)
          to label %19 unwind label %33

19:                                               ; preds = %18
  %20 = getelementptr inbounds %"class.Minisat::Solver", ptr %6, i32 0, i32 3
  %21 = load i32, ptr %20, align 8
  %22 = icmp sge i32 %21, 2
  br i1 %22, label %23, label %37

23:                                               ; preds = %19
  %24 = getelementptr inbounds %"class.Minisat::Solver", ptr %6, i32 0, i32 62
  %25 = invoke noundef i32 @_ZNK7Minisat15ClauseAllocator4sizeEv(ptr noundef nonnull align 8 dereferenceable(25) %24)
          to label %26 unwind label %33

26:                                               ; preds = %23
  %27 = mul i32 %25, 4
  %28 = invoke noundef i32 @_ZNK7Minisat15ClauseAllocator4sizeEv(ptr noundef nonnull align 8 dereferenceable(25) %3)
          to label %29 unwind label %33

29:                                               ; preds = %26
  %30 = mul i32 %28, 4
  %31 = invoke i32 (ptr, ...) @printf(ptr noundef @.str.27, i32 noundef %27, i32 noundef %30)
          to label %32 unwind label %33

32:                                               ; preds = %29
  br label %37

33:                                               ; preds = %37, %29, %26, %23, %18, %1
  %34 = landingpad { ptr, i32 }
          cleanup
  %35 = extractvalue { ptr, i32 } %34, 0
  store ptr %35, ptr %4, align 8
  %36 = extractvalue { ptr, i32 } %34, 1
  store i32 %36, ptr %5, align 4
  call void @_ZN7Minisat15ClauseAllocatorD2Ev(ptr noundef nonnull align 8 dereferenceable(25) %3) #3
  br label %40

37:                                               ; preds = %32, %19
  %38 = getelementptr inbounds %"class.Minisat::Solver", ptr %6, i32 0, i32 62
  invoke void @_ZN7Minisat15ClauseAllocator6moveToERS0_(ptr noundef nonnull align 8 dereferenceable(25) %3, ptr noundef nonnull align 8 dereferenceable(25) %38)
          to label %39 unwind label %33

39:                                               ; preds = %37
  call void @_ZN7Minisat15ClauseAllocatorD2Ev(ptr noundef nonnull align 8 dereferenceable(25) %3) #3
  ret void

40:                                               ; preds = %33
  %41 = load ptr, ptr %4, align 8
  %42 = load i32, ptr %5, align 4
  %43 = insertvalue { ptr, i32 } poison, ptr %41, 0
  %44 = insertvalue { ptr, i32 } %43, i32 %42, 1
  resume { ptr, i32 } %44
}